; Function Attrs: alwaysinline norecurse nounwind ssp uwtable
define internal void @"_ZN6open3d4core15ParallelForCPU_IZZZNS_1t8geometry6kernel10pointcloud42EstimateColorGradientsUsingRadiusSearchCPUERKNS0_6TensorES8_S8_RS6_RKdENK3$_0clEvENKUlvE0_clEvEUllE_EEvRKNS0_6DeviceElRKT_.omp_outlined"(ptr noalias noundef readonly captures(none) %0, ptr noalias readnone captures(none) %1, ptr noundef nonnull readonly align 8 captures(none) dereferenceable(8) %2, ptr noundef nonnull readonly align 8 captures(none) dereferenceable(48) %3) #25 personality ptr @__gxx_personality_v0 {
  %5 = alloca i32, align 4
  %6 = alloca i32, align 4
  %7 = alloca i64, align 8
  %8 = alloca i64, align 8
  %9 = alloca i64, align 8
  %10 = alloca i32, align 4
  %11 = load i64, ptr %2, align 8, !tbaa !8
  %12 = icmp sgt i64 %11, 0
  br i1 %12, label %13, label %43

13:                                               ; preds = %4
  %14 = add nsw i64 %11, -1
  call void @llvm.lifetime.start.p0(i64 8, ptr nonnull %7) #26
  store i64 0, ptr %7, align 8, !tbaa !8
  call void @llvm.lifetime.start.p0(i64 8, ptr nonnull %8) #26
  store i64 %14, ptr %8, align 8, !tbaa !8
  call void @llvm.lifetime.start.p0(i64 8, ptr nonnull %9) #26
  store i64 1, ptr %9, align 8, !tbaa !8
  call void @llvm.lifetime.start.p0(i64 4, ptr nonnull %10) #26
  store i32 0, ptr %10, align 4, !tbaa !34
  %15 = load i32, ptr %0, align 4, !tbaa !34
  call void @__kmpc_for_static_init_8(ptr nonnull @1, i32 %15, i32 34, ptr nonnull %10, ptr nonnull %7, ptr nonnull %8, ptr nonnull %9, i64 1, i64 1)
  %16 = load i64, ptr %8, align 8, !tbaa !8
  %17 = call i64 @llvm.smin.i64(i64 %16, i64 %14)
  store i64 %17, ptr %8, align 8, !tbaa !8
  %18 = load i64, ptr %7, align 8, !tbaa !8
  %.not13 = icmp sgt i64 %18, %17
  br i1 %.not13, label %._crit_edge, label %.lr.ph

.lr.ph:                                           ; preds = %13
  %19 = getelementptr inbounds nuw i8, ptr %3, i64 8
  %20 = getelementptr inbounds nuw i8, ptr %3, i64 16
  %21 = getelementptr inbounds nuw i8, ptr %3, i64 24
  %22 = getelementptr inbounds nuw i8, ptr %3, i64 32
  %23 = getelementptr inbounds nuw i8, ptr %3, i64 40
  br label %24

24:                                               ; preds = %.lr.ph, %40
  %.014 = phi i64 [ %18, %.lr.ph ], [ %41, %40 ]
  %25 = load ptr, ptr %3, align 8, !tbaa !1148
  %26 = getelementptr inbounds i32, ptr %25, i64 %.014
  %27 = load i32, ptr %26, align 4, !tbaa !34
  call void @llvm.lifetime.start.p0(i64 4, ptr nonnull %5) #26
  %28 = getelementptr i8, ptr %26, i64 4
  %29 = load i32, ptr %28, align 4, !tbaa !34
  %30 = sub nsw i32 %29, %27
  store i32 %30, ptr %5, align 4, !tbaa !34
  call void @llvm.lifetime.start.p0(i64 4, ptr nonnull %6) #26
  %31 = trunc i64 %.014 to i32
  %32 = mul i32 %31, 3
  store i32 %32, ptr %6, align 4, !tbaa !34
  %33 = load ptr, ptr %19, align 8, !tbaa !1150
  %34 = load ptr, ptr %20, align 8, !tbaa !1151
  %35 = load ptr, ptr %21, align 8, !tbaa !1152
  %36 = load ptr, ptr %22, align 8, !tbaa !1153
  %37 = sext i32 %27 to i64
  %38 = getelementptr inbounds i32, ptr %36, i64 %37
  %39 = load ptr, ptr %23, align 8, !tbaa !1154
  invoke void @_ZN6open3d1t8geometry6kernel10pointcloud36EstimatePointWiseColorGradientKernelIdEEvPKT_S7_S7_RKiPS8_S9_PS5_(ptr noundef %33, ptr noundef %34, ptr noundef %35, ptr noundef nonnull align 4 dereferenceable(4) %6, ptr noundef %38, ptr noundef nonnull align 4 dereferenceable(4) %5, ptr noundef %39)
          to label %40 unwind label %44

40:                                               ; preds = %24
  call void @llvm.lifetime.end.p0(i64 4, ptr nonnull %6) #26
  call void @llvm.lifetime.end.p0(i64 4, ptr nonnull %5) #26
  %41 = add nsw i64 %.014, 1
  %42 = load i64, ptr %8, align 8, !tbaa !8
  %.not.not = icmp slt i64 %.014, %42
  br i1 %.not.not, label %24, label %._crit_edge

._crit_edge:                                      ; preds = %40, %13
  call void @__kmpc_for_static_fini(ptr nonnull @1, i32 %15)
  call void @llvm.lifetime.end.p0(i64 4, ptr nonnull %10) #26
  call void @llvm.lifetime.end.p0(i64 8, ptr nonnull %9) #26
  call void @llvm.lifetime.end.p0(i64 8, ptr nonnull %8) #26
  call void @llvm.lifetime.end.p0(i64 8, ptr nonnull %7) #26
  br label %43

43:                                               ; preds = %._crit_edge, %4
  ret void

44:                                               ; preds = %24
  %45 = landingpad { ptr, i32 }
          catch ptr null
  %46 = extractvalue { ptr, i32 } %45, 0
  call void @__clang_call_terminate(ptr %46) #36
  unreachable
}